target datalayout = "e-m:e-p270:32:32-p271:32:32-p272:64:64-i64:64-i128:128-f80:128-n8:16:32:64-S128"
target triple = "x86_64-pc-linux-gnu"

%struct.cc_lookup = type { i32, i32, i32, i32 }
%struct.CCFifo = type { ptr, ptr, %struct.AVRational, i32, i32, i32, i32, i32, ptr }
%struct.AVRational = type { i32, i32 }

; Function Attrs: nounwind uwtable
define void @ff_ccfifo_uninit(ptr noundef %0) #0 {
  %2 = alloca ptr, align 8
  store ptr %0, ptr %2, align 8, !tbaa !4
  %3 = load ptr, ptr %2, align 8, !tbaa !4
  %4 = getelementptr inbounds nuw %struct.CCFifo, ptr %3, i32 0, i32 0
  call void @av_fifo_freep2(ptr noundef %4)
  %5 = load ptr, ptr %2, align 8, !tbaa !4
  %6 = getelementptr inbounds nuw %struct.CCFifo, ptr %5, i32 0, i32 1
  call void @av_fifo_freep2(ptr noundef %6)
  %7 = load ptr, ptr %2, align 8, !tbaa !4
  call void @llvm.memset.p0.i64(ptr align 8 %7, i8 0, i64 56, i1 false)
  ret void
}

; Function Attrs: nounwind uwtable
define i32 @ff_ccfifo_init(ptr noundef %0, i64 %1, ptr noundef %2) #0 {
  %4 = alloca i32, align 4
  %5 = alloca %struct.AVRational, align 4
  %6 = alloca ptr, align 8
  %7 = alloca ptr, align 8
  %8 = alloca i32, align 4
  %9 = alloca i32, align 4
  store i64 %1, ptr %5, align 4
  store ptr %0, ptr %6, align 8, !tbaa !4
  store ptr %2, ptr %7, align 8, !tbaa !9
  call void @llvm.lifetime.start.p0(i64 4, ptr %8) #6
  %10 = load ptr, ptr %6, align 8, !tbaa !4
  call void @llvm.memset.p0.i64(ptr align 8 %10, i8 0, i64 56, i1 false)
  %11 = load ptr, ptr %7, align 8, !tbaa !9
  %12 = load ptr, ptr %6, align 8, !tbaa !4
  %13 = getelementptr inbounds nuw %struct.CCFifo, ptr %12, i32 0, i32 8
  store ptr %11, ptr %13, align 8, !tbaa !10
  %14 = load ptr, ptr %6, align 8, !tbaa !4
  %15 = getelementptr inbounds nuw %struct.CCFifo, ptr %14, i32 0, i32 2
  call void @llvm.memcpy.p0.p0.i64(ptr align 8 %15, ptr align 4 %5, i64 8, i1 false), !tbaa.struct !15
  %16 = call ptr @av_fifo_alloc2(i64 noundef 128, i64 noundef 3, i32 noundef 0)
  %17 = load ptr, ptr %6, align 8, !tbaa !4
  %18 = getelementptr inbounds nuw %struct.CCFifo, ptr %17, i32 0, i32 1
  store ptr %16, ptr %18, align 8, !tbaa !17
  %19 = icmp ne ptr %16, null
  br i1 %19, label %21, label %20

20:                                               ; preds = %3
  br label %78

21:                                               ; preds = %3
  %22 = call ptr @av_fifo_alloc2(i64 noundef 128, i64 noundef 3, i32 noundef 0)
  %23 = load ptr, ptr %6, align 8, !tbaa !4
  %24 = getelementptr inbounds nuw %struct.CCFifo, ptr %23, i32 0, i32 0
  store ptr %22, ptr %24, align 8, !tbaa !18
  %25 = icmp ne ptr %22, null
  br i1 %25, label %27, label %26

26:                                               ; preds = %21
  br label %78

27:                                               ; preds = %21
  store i32 0, ptr %8, align 4, !tbaa !16
  br label %28

28:                                               ; preds = %66, %27
  %29 = load i32, ptr %8, align 4, !tbaa !16
  %30 = sext i32 %29 to i64
  %31 = icmp ult i64 %30, 7
  br i1 %31, label %32, label %69

32:                                               ; preds = %28
  %33 = getelementptr inbounds nuw %struct.AVRational, ptr %5, i32 0, i32 0
  %34 = load i32, ptr %33, align 4, !tbaa !19
  %35 = load i32, ptr %8, align 4, !tbaa !16
  %36 = sext i32 %35 to i64
  %37 = getelementptr inbounds [7 x %struct.cc_lookup], ptr @cc_lookup_vals, i64 0, i64 %36
  %38 = getelementptr inbounds nuw %struct.cc_lookup, ptr %37, i32 0, i32 0
  %39 = load i32, ptr %38, align 16, !tbaa !20
  %40 = icmp eq i32 %34, %39
  br i1 %40, label %41, label %65

41:                                               ; preds = %32
  %42 = getelementptr inbounds nuw %struct.AVRational, ptr %5, i32 0, i32 1
  %43 = load i32, ptr %42, align 4, !tbaa !22
  %44 = load i32, ptr %8, align 4, !tbaa !16
  %45 = sext i32 %44 to i64
  %46 = getelementptr inbounds [7 x %struct.cc_lookup], ptr @cc_lookup_vals, i64 0, i64 %45
  %47 = getelementptr inbounds nuw %struct.cc_lookup, ptr %46, i32 0, i32 1
  %48 = load i32, ptr %47, align 4, !tbaa !23
  %49 = icmp eq i32 %43, %48
  br i1 %49, label %50, label %65

50:                                               ; preds = %41
  %51 = load i32, ptr %8, align 4, !tbaa !16
  %52 = sext i32 %51 to i64
  %53 = getelementptr inbounds [7 x %struct.cc_lookup], ptr @cc_lookup_vals, i64 0, i64 %52
  %54 = getelementptr inbounds nuw %struct.cc_lookup, ptr %53, i32 0, i32 2
  %55 = load i32, ptr %54, align 8, !tbaa !24
  %56 = load ptr, ptr %6, align 8, !tbaa !4
  %57 = getelementptr inbounds nuw %struct.CCFifo, ptr %56, i32 0, i32 3
  store i32 %55, ptr %57, align 8, !tbaa !25
  %58 = load i32, ptr %8, align 4, !tbaa !16
  %59 = sext i32 %58 to i64
  %60 = getelementptr inbounds [7 x %struct.cc_lookup], ptr @cc_lookup_vals, i64 0, i64 %59
  %61 = getelementptr inbounds nuw %struct.cc_lookup, ptr %60, i32 0, i32 3
  %62 = load i32, ptr %61, align 4, !tbaa !26
  %63 = load ptr, ptr %6, align 8, !tbaa !4
  %64 = getelementptr inbounds nuw %struct.CCFifo, ptr %63, i32 0, i32 4
  store i32 %62, ptr %64, align 4, !tbaa !27
  br label %69

65:                                               ; preds = %41, %32
  br label %66

66:                                               ; preds = %65
  %67 = load i32, ptr %8, align 4, !tbaa !16
  %68 = add nsw i32 %67, 1
  store i32 %68, ptr %8, align 4, !tbaa !16
  br label %28, !llvm.loop !28

69:                                               ; preds = %50, %28
  %70 = load ptr, ptr %6, align 8, !tbaa !4
  %71 = getelementptr inbounds nuw %struct.CCFifo, ptr %70, i32 0, i32 4
  %72 = load i32, ptr %71, align 4, !tbaa !27
  %73 = icmp eq i32 %72, 0
  br i1 %73, label %74, label %77

74:                                               ; preds = %69
  %75 = load ptr, ptr %6, align 8, !tbaa !4
  %76 = getelementptr inbounds nuw %struct.CCFifo, ptr %75, i32 0, i32 6
  store i32 1, ptr %76, align 4, !tbaa !30
  br label %77

77:                                               ; preds = %74, %69
  store i32 0, ptr %4, align 4
  store i32 1, ptr %9, align 4
  br label %80

78:                                               ; preds = %26, %20
  %79 = load ptr, ptr %6, align 8, !tbaa !4
  call void @ff_ccfifo_uninit(ptr noundef %79)
  store i32 -12, ptr %4, align 4
  store i32 1, ptr %9, align 4
  br label %80

80:                                               ; preds = %78, %77
  call void @llvm.lifetime.end.p0(i64 4, ptr %8) #6
  %81 = load i32, ptr %4, align 4
  ret i32 %81
}