; Function Attrs: nounwind uwtable
define range(i32 -12, 1) i32 @ff_ccfifo_init(ptr noundef initializes((0, 56)) %0, i64 %1, ptr noundef %2) local_unnamed_addr #0 {
  %.sroa.0.0.extract.trunc = trunc i64 %1 to i32
  %.sroa.3.0.extract.shift = lshr i64 %1, 32
  %.sroa.3.0.extract.trunc = trunc nuw i64 %.sroa.3.0.extract.shift to i32
  tail call void @llvm.memset.p0.i64(ptr noundef nonnull align 8 dereferenceable(56) %0, i8 0, i64 48, i1 false)
  %4 = getelementptr inbounds nuw i8, ptr %0, i64 48
  store ptr %2, ptr %4, align 8, !tbaa !4
  %5 = getelementptr inbounds nuw i8, ptr %0, i64 16
  store i32 %.sroa.0.0.extract.trunc, ptr %5, align 8, !tbaa !12
  %.sroa.3.0..sroa_idx = getelementptr inbounds nuw i8, ptr %0, i64 20
  store i32 %.sroa.3.0.extract.trunc, ptr %.sroa.3.0..sroa_idx, align 4, !tbaa !12
  %6 = tail call ptr @av_fifo_alloc2(i64 noundef 128, i64 noundef 3, i32 noundef 0) #3
  %7 = getelementptr inbounds nuw i8, ptr %0, i64 8
  store ptr %6, ptr %7, align 8, !tbaa !13
  %.not = icmp eq ptr %6, null
  br i1 %.not, label %29, label %8

8:                                                ; preds = %3
  %9 = tail call ptr @av_fifo_alloc2(i64 noundef 128, i64 noundef 3, i32 noundef 0) #3
  store ptr %9, ptr %0, align 8, !tbaa !14
  %.not19 = icmp eq ptr %9, null
  br i1 %.not19, label %29, label %.preheader

.preheader:                                       ; preds = %8, %24
  %indvars.iv = phi i64 [ %indvars.iv.next, %24 ], [ 0, %8 ]
  %10 = getelementptr inbounds nuw [7 x %struct.cc_lookup], ptr @cc_lookup_vals, i64 0, i64 %indvars.iv
  %11 = load i32, ptr %10, align 16, !tbaa !15
  %12 = icmp eq i32 %11, %.sroa.0.0.extract.trunc
  br i1 %12, label %13, label %24

13:                                               ; preds = %.preheader
  %14 = getelementptr inbounds nuw i8, ptr %10, i64 4
  %15 = load i32, ptr %14, align 4, !tbaa !17
  %16 = icmp eq i32 %15, %.sroa.3.0.extract.trunc
  br i1 %16, label %17, label %24

17:                                               ; preds = %13
  %18 = getelementptr inbounds nuw i8, ptr %10, i64 8
  %19 = load i32, ptr %18, align 8, !tbaa !18
  %20 = getelementptr inbounds nuw i8, ptr %0, i64 24
  store i32 %19, ptr %20, align 8, !tbaa !19
  %21 = getelementptr inbounds nuw i8, ptr %10, i64 12
  %22 = load i32, ptr %21, align 4, !tbaa !20
  %23 = getelementptr inbounds nuw i8, ptr %0, i64 28
  store i32 %22, ptr %23, align 4, !tbaa !21
  br label %.loopexit

24:                                               ; preds = %.preheader, %13
  %indvars.iv.next = add nuw nsw i64 %indvars.iv, 1
  %exitcond.not = icmp eq i64 %indvars.iv.next, 7
  br i1 %exitcond.not, label %.loopexit.loopexit, label %.preheader, !llvm.loop !22

.loopexit.loopexit:                               ; preds = %24
  %.phi.trans.insert = getelementptr inbounds nuw i8, ptr %0, i64 28
  %.pre = load i32, ptr %.phi.trans.insert, align 4, !tbaa !21
  br label %.loopexit

.loopexit:                                        ; preds = %.loopexit.loopexit, %17
  %25 = phi i32 [ %.pre, %.loopexit.loopexit ], [ %22, %17 ]
  %26 = icmp eq i32 %25, 0
  br i1 %26, label %27, label %30

27:                                               ; preds = %.loopexit
  %28 = getelementptr inbounds nuw i8, ptr %0, i64 36
  store i32 1, ptr %28, align 4, !tbaa !24
  br label %30

29:                                               ; preds = %8, %3
  tail call void @av_fifo_freep2(ptr noundef nonnull %0) #3
  tail call void @av_fifo_freep2(ptr noundef nonnull %7) #3
  tail call void @llvm.memset.p0.i64(ptr noundef nonnull align 8 dereferenceable(56) %0, i8 0, i64 56, i1 false)
  br label %30

30:                                               ; preds = %.loopexit, %27, %29
  %.017 = phi i32 [ -12, %29 ], [ 0, %27 ], [ 0, %.loopexit ]
  ret i32 %.017
}